target datalayout = "e-m:e-p270:32:32-p271:32:32-p272:64:64-i64:64-i128:128-f80:128-n8:16:32:64-S128"
target triple = "x86_64-pc-linux-gnu"

%struct.SDLTest_TextWindow = type { %struct.SDL_FRect, i32, i32, ptr }
%struct.SDL_FRect = type { float, float, float, float }

@FONT_CHARACTER_SIZE = dso_local global i32 8, align 4

; Function Attrs: nounwind uwtable
define dso_local zeroext i1 @SDLTest_DrawString(ptr noundef %0, float noundef %1, float noundef %2, ptr noundef %3) #0 {
  %5 = alloca ptr, align 8
  %6 = alloca float, align 4
  %7 = alloca float, align 4
  %8 = alloca ptr, align 8
  store ptr %0, ptr %5, align 8
  store float %1, ptr %6, align 4
  store float %2, ptr %7, align 4
  store ptr %3, ptr %8, align 8
  %9 = load ptr, ptr %5, align 8
  %10 = load float, ptr %6, align 4
  %11 = load float, ptr %7, align 4
  %12 = load ptr, ptr %8, align 8
  %13 = call zeroext i1 @SDL_RenderDebugText(ptr noundef %9, float noundef %10, float noundef %11, ptr noundef %12)
  ret i1 %13
}

; Function Attrs: nounwind uwtable
define dso_local void @SDLTest_TextWindowDisplay(ptr noundef %0, ptr noundef %1) #0 {
  %3 = alloca ptr, align 8
  %4 = alloca ptr, align 8
  %5 = alloca i32, align 4
  %6 = alloca float, align 4
  store ptr %0, ptr %3, align 8
  store ptr %1, ptr %4, align 8
  call void @llvm.lifetime.start.p0(i64 4, ptr %5) #7
  call void @llvm.lifetime.start.p0(i64 4, ptr %6) #7
  %7 = load ptr, ptr %3, align 8
  %8 = getelementptr inbounds nuw %struct.SDLTest_TextWindow, ptr %7, i32 0, i32 0
  %9 = getelementptr inbounds nuw %struct.SDL_FRect, ptr %8, i32 0, i32 1
  %10 = load float, ptr %9, align 4
  store float %10, ptr %6, align 4
  store i32 0, ptr %5, align 4
  br label %11

11:                                               ; preds = %42, %2
  %12 = load i32, ptr %5, align 4
  %13 = load ptr, ptr %3, align 8
  %14 = getelementptr inbounds nuw %struct.SDLTest_TextWindow, ptr %13, i32 0, i32 2
  %15 = load i32, ptr %14, align 4
  %16 = icmp slt i32 %12, %15
  br i1 %16, label %17, label %50

17:                                               ; preds = %11
  %18 = load ptr, ptr %3, align 8
  %19 = getelementptr inbounds nuw %struct.SDLTest_TextWindow, ptr %18, i32 0, i32 3
  %20 = load ptr, ptr %19, align 8
  %21 = load i32, ptr %5, align 4
  %22 = sext i32 %21 to i64
  %23 = getelementptr inbounds ptr, ptr %20, i64 %22
  %24 = load ptr, ptr %23, align 8
  %25 = icmp ne ptr %24, null
  br i1 %25, label %26, label %41

26:                                               ; preds = %17
  %27 = load ptr, ptr %4, align 8
  %28 = load ptr, ptr %3, align 8
  %29 = getelementptr inbounds nuw %struct.SDLTest_TextWindow, ptr %28, i32 0, i32 0
  %30 = getelementptr inbounds nuw %struct.SDL_FRect, ptr %29, i32 0, i32 0
  %31 = load float, ptr %30, align 8
  %32 = load float, ptr %6, align 4
  %33 = load ptr, ptr %3, align 8
  %34 = getelementptr inbounds nuw %struct.SDLTest_TextWindow, ptr %33, i32 0, i32 3
  %35 = load ptr, ptr %34, align 8
  %36 = load i32, ptr %5, align 4
  %37 = sext i32 %36 to i64
  %38 = getelementptr inbounds ptr, ptr %35, i64 %37
  %39 = load ptr, ptr %38, align 8
  %40 = call zeroext i1 @SDLTest_DrawString(ptr noundef %27, float noundef %31, float noundef %32, ptr noundef %39)
  br label %41

41:                                               ; preds = %26, %17
  br label %42

42:                                               ; preds = %41
  %43 = load i32, ptr %5, align 4
  %44 = add nsw i32 %43, 1
  store i32 %44, ptr %5, align 4
  %45 = load i32, ptr @FONT_CHARACTER_SIZE, align 4
  %46 = add nsw i32 %45, 2
  %47 = sitofp i32 %46 to float
  %48 = load float, ptr %6, align 4
  %49 = fadd float %48, %47
  store float %49, ptr %6, align 4
  br label %11, !llvm.loop !4

50:                                               ; preds = %11
  call void @llvm.lifetime.end.p0(i64 4, ptr %6) #7
  call void @llvm.lifetime.end.p0(i64 4, ptr %5) #7
  ret void
}