; Function Attrs: nounwind uwtable
define dso_local void @SDLTest_TextWindowDisplay(ptr noundef readonly captures(none) %0, ptr noundef %1) local_unnamed_addr #0 {
  %3 = getelementptr inbounds nuw i8, ptr %0, i64 20
  %4 = load i32, ptr %3, align 4
  %5 = icmp sgt i32 %4, 0
  br i1 %5, label %.lr.ph, label %._crit_edge

.lr.ph:                                           ; preds = %2
  %6 = getelementptr inbounds nuw i8, ptr %0, i64 4
  %7 = load float, ptr %6, align 4
  %8 = getelementptr inbounds nuw i8, ptr %0, i64 24
  br label %9

9:                                                ; preds = %.lr.ph, %17
  %10 = phi i32 [ %4, %.lr.ph ], [ %18, %17 ]
  %indvars.iv = phi i64 [ 0, %.lr.ph ], [ %indvars.iv.next, %17 ]
  %.014 = phi float [ %7, %.lr.ph ], [ %22, %17 ]
  %11 = load ptr, ptr %8, align 8
  %12 = getelementptr inbounds nuw ptr, ptr %11, i64 %indvars.iv
  %13 = load ptr, ptr %12, align 8
  %.not = icmp eq ptr %13, null
  br i1 %.not, label %17, label %14

14:                                               ; preds = %9
  %15 = load float, ptr %0, align 8
  %16 = tail call zeroext i1 @SDL_RenderDebugText(ptr noundef %1, float noundef %15, float noundef %.014, ptr noundef nonnull %13) #8
  %.pre = load i32, ptr %3, align 4
  br label %17

17:                                               ; preds = %9, %14
  %18 = phi i32 [ %10, %9 ], [ %.pre, %14 ]
  %indvars.iv.next = add nuw nsw i64 %indvars.iv, 1
  %19 = load i32, ptr @FONT_CHARACTER_SIZE, align 4
  %20 = add nsw i32 %19, 2
  %21 = sitofp i32 %20 to float
  %22 = fadd float %.014, %21
  %23 = sext i32 %18 to i64
  %24 = icmp slt i64 %indvars.iv.next, %23
  br i1 %24, label %9, label %._crit_edge, !llvm.loop !4

._crit_edge:                                      ; preds = %17, %2
  ret void
}